; Function Attrs: nounwind uwtable
define range(i32 0, 2) i32 @ossl_pw_set_passphrase(ptr noundef captures(address_is_null) %0, ptr noundef %1, i64 noundef %2) local_unnamed_addr #0 {
  %4 = icmp ne ptr %0, null
  %5 = icmp ne ptr %1, null
  %6 = and i1 %4, %5
  br i1 %6, label %8, label %7, !prof !14

7:                                                ; preds = %3
  tail call void @ERR_new() #7
  tail call void @ERR_set_debug(ptr noundef nonnull @.str, i32 noundef 38, ptr noundef nonnull @__func__.ossl_pw_set_passphrase) #7
  tail call void (i32, i32, ptr, ...) @ERR_set_error(i32 noundef 15, i32 noundef 786690, ptr noundef null) #7
  br label %30

8:                                                ; preds = %3
  %9 = load i32, ptr %0, align 8, !tbaa !3
  %10 = icmp eq i32 %9, 1
  br i1 %10, label %11, label %ossl_pw_clear_passphrase_data.exit

11:                                               ; preds = %8
  %12 = getelementptr inbounds nuw i8, ptr %0, i64 8
  %13 = load ptr, ptr %12, align 8, !tbaa !11
  %14 = getelementptr inbounds nuw i8, ptr %0, i64 16
  %15 = load i64, ptr %14, align 8, !tbaa !11
  tail call void @CRYPTO_clear_free(ptr noundef %13, i64 noundef %15, ptr noundef nonnull @.str, i32 noundef 21) #7
  br label %ossl_pw_clear_passphrase_data.exit

ossl_pw_clear_passphrase_data.exit:               ; preds = %8, %11
  %16 = getelementptr inbounds nuw i8, ptr %0, i64 32
  %17 = load ptr, ptr %16, align 8, !tbaa !12
  %18 = getelementptr inbounds nuw i8, ptr %0, i64 40
  %19 = load i64, ptr %18, align 8, !tbaa !13
  tail call void @CRYPTO_clear_free(ptr noundef %17, i64 noundef %19, ptr noundef nonnull @.str, i32 noundef 29) #7
  tail call void @llvm.memset.p0.i64(ptr noundef nonnull align 8 dereferenceable(48) %0, i8 0, i64 48, i1 false)
  store i32 1, ptr %0, align 8, !tbaa !3
  %.not = icmp eq i64 %2, 0
  br i1 %.not, label %22, label %20

20:                                               ; preds = %ossl_pw_clear_passphrase_data.exit
  %21 = tail call noalias ptr @CRYPTO_memdup(ptr noundef nonnull %1, i64 noundef %2, ptr noundef nonnull @.str, i32 noundef 44) #7
  br label %24

22:                                               ; preds = %ossl_pw_clear_passphrase_data.exit
  %23 = tail call noalias ptr @CRYPTO_malloc(i64 noundef 1, ptr noundef nonnull @.str, i32 noundef 45) #7
  br label %24

24:                                               ; preds = %22, %20
  %25 = phi ptr [ %21, %20 ], [ %23, %22 ]
  %26 = getelementptr inbounds nuw i8, ptr %0, i64 8
  store ptr %25, ptr %26, align 8, !tbaa !11
  %27 = icmp eq ptr %25, null
  br i1 %27, label %30, label %28

28:                                               ; preds = %24
  %29 = getelementptr inbounds nuw i8, ptr %0, i64 16
  store i64 %2, ptr %29, align 8, !tbaa !11
  br label %30

30:                                               ; preds = %24, %28, %7
  %.0 = phi i32 [ 1, %28 ], [ 0, %7 ], [ 0, %24 ]
  ret i32 %.0
}